target datalayout = "e-m:e-p270:32:32-p271:32:32-p272:64:64-i64:64-i128:128-f80:128-n8:16:32:64-S128"
target triple = "x86_64-pc-linux-gnu"

%struct.AV1Common = type { %struct.CurrentFrame, %struct.aom_internal_error_info, i32, i32, i32, i32, i32, i32, i8, i8, [33 x i32], i32, ptr, ptr, [8 x i32], %struct.scale_factors, [8 x %struct.scale_factors], [8 x ptr], i32, i32, i32, %struct.FeatureFlags, %struct.CommonModeInfoParams, %struct.CommonQuantParams, %struct.segmentation, ptr, [8 x i8], %struct.loop_filter_info_n, %struct.loopfilter, [3 x %struct.RestorationInfo], ptr, ptr, %struct.yv12_buffer_config, %struct.CdefInfo, %struct.aom_film_grain_t, %struct.DeltaQInfo, [8 x %struct.WarpedMotionParams], %struct.SequenceHeader, ptr, ptr, %struct.CommonTileParams, ptr, %struct.CommonContexts, i32, [8 x i32], ptr, i32, [8 x i32], [8 x i8], i32, i32, i32, i32 }
%struct.CurrentFrame = type { i8, i8, i32, i32, i32, %struct.SkipModeInfo, i32, i32 }
%struct.SkipModeInfo = type { i32, i32, i32, i32 }
%struct.aom_internal_error_info = type { i32, i32, [200 x i8], i32, [1 x %struct.__jmp_buf_tag] }
%struct.__jmp_buf_tag = type { [8 x i64], i32, %struct.__sigset_t }
%struct.__sigset_t = type { [16 x i64] }
%struct.scale_factors = type { i32, i32, i32, i32, ptr, ptr }
%struct.FeatureFlags = type { i8, i8, i8, i8, i8, i8, i8, i8, i8, i8, i8, i8, i8, i8, i32, i32, i8 }
%struct.CommonModeInfoParams = type { i32, i32, i32, i32, i32, ptr, i32, i32, i8, ptr, i32, i32, ptr, ptr, ptr, ptr }
%struct.CommonQuantParams = type { i32, i32, i32, i32, i32, i32, [8 x [2 x i16]], [8 x [2 x i16]], [8 x [2 x i16]], [16 x [3 x [19 x ptr]]], [16 x [3 x [19 x ptr]]], [8 x [19 x ptr]], [8 x [19 x ptr]], [8 x [19 x ptr]], i8, i32, i32, i32 }
%struct.segmentation = type { i8, i8, i8, i8, [8 x [8 x i16]], [8 x i32], i32, i8 }
%struct.loop_filter_info_n = type { [64 x %struct.loop_filter_thresh], [3 x [8 x [2 x [8 x [2 x i8]]]]] }
%struct.loop_filter_thresh = type { [16 x i8], [16 x i8], [16 x i8] }
%struct.loopfilter = type { [2 x i32], i32, i32, i32, i8, i8, [8 x i8], [2 x i8], i32 }
%struct.RestorationInfo = type { i32, i32, i32, i32, i32, ptr, %struct.RestorationStripeBoundaries, i32 }
%struct.RestorationStripeBoundaries = type { ptr, ptr, i32, i32 }
%struct.yv12_buffer_config = type { %union.anon, %union.anon.0, %union.anon.2, %union.anon.4, %union.anon.6, %union.anon.8, i32, [3 x ptr], ptr, i32, ptr, i64, i32, i64, i32, i32, i32, i32, i32, i32, i8, i32, i32, i32, i32, i32, i32, ptr }
%union.anon = type { %struct.anon }
%struct.anon = type { i32, i32 }
%union.anon.0 = type { %struct.anon.1 }
%struct.anon.1 = type { i32, i32 }
%union.anon.2 = type { %struct.anon.3 }
%struct.anon.3 = type { i32, i32 }
%union.anon.4 = type { %struct.anon.5 }
%struct.anon.5 = type { i32, i32 }
%union.anon.6 = type { %struct.anon.7 }
%struct.anon.7 = type { i32, i32 }
%union.anon.8 = type { %struct.anon.9 }
%struct.anon.9 = type { ptr, ptr, ptr }
%struct.CdefInfo = type { i32, i32, [16 x i32], [16 x i32], i32 }
%struct.aom_film_grain_t = type { i32, i32, [14 x [2 x i32]], i32, [10 x [2 x i32]], i32, [10 x [2 x i32]], i32, i32, i32, [24 x i32], [25 x i32], [25 x i32], i32, i32, i32, i32, i32, i32, i32, i32, i32, i32, i32, i32, i16 }
%struct.DeltaQInfo = type { i32, i32, i32, i32, i32 }
%struct.WarpedMotionParams = type { [8 x i32], i16, i16, i16, i16, i8, i8 }
%struct.SequenceHeader = type { i32, i32, i32, i32, i8, i32, i32, i8, i32, i32, %struct.OrderHintInfo, i8, i8, i8, i8, i8, i8, i8, i8, i8, i8, i8, i8, i8, i8, i32, i8, i8, i32, i32, i32, i32, i32, i32, i32, i8, i8, i32, [32 x i32], i32, %struct.aom_timing, i8, %struct.aom_dec_model_info, i8, [32 x i8], [32 x i8], [33 x %struct.aom_dec_model_op_parameters] }
%struct.OrderHintInfo = type { i32, i32, i32, i32 }
%struct.aom_timing = type { i32, i32, i32, i32 }
%struct.aom_dec_model_info = type { i32, i32, i32, i32 }
%struct.aom_dec_model_op_parameters = type { i32, i64, i64, i32, i32, i32, i32, i32 }
%struct.CommonTileParams = type { i32, i32, i32, i32, i32, i32, i32, i32, i32, i32, i32, i32, i32, i32, i32, [65 x i32], [65 x i32], i32, i32 }
%struct.CommonContexts = type { ptr, [3 x ptr], ptr, i32, i32, i32 }

; Function Attrs: nounwind uwtable
define hidden void @av1_get_uniform_tile_size(ptr noundef %0, ptr noundef %1, ptr noundef %2) #0 {
  %4 = alloca ptr, align 8
  %5 = alloca ptr, align 8
  %6 = alloca ptr, align 8
  %7 = alloca ptr, align 8
  %8 = alloca i32, align 4
  %9 = alloca i32, align 4
  %10 = alloca i32, align 4
  %11 = alloca i32, align 4
  %12 = alloca i32, align 4
  %13 = alloca i32, align 4
  store ptr %0, ptr %4, align 8
  store ptr %1, ptr %5, align 8
  store ptr %2, ptr %6, align 8
  %14 = load ptr, ptr %4, align 8
  %15 = getelementptr inbounds nuw %struct.AV1Common, ptr %14, i32 0, i32 40
  store ptr %15, ptr %7, align 8
  %16 = load ptr, ptr %7, align 8
  %17 = getelementptr inbounds nuw %struct.CommonTileParams, ptr %16, i32 0, i32 5
  %18 = load i32, ptr %17, align 4
  %19 = icmp ne i32 %18, 0
  br i1 %19, label %20, label %29

20:                                               ; preds = %3
  %21 = load ptr, ptr %7, align 8
  %22 = getelementptr inbounds nuw %struct.CommonTileParams, ptr %21, i32 0, i32 8
  %23 = load i32, ptr %22, align 4
  %24 = load ptr, ptr %5, align 8
  store i32 %23, ptr %24, align 4
  %25 = load ptr, ptr %7, align 8
  %26 = getelementptr inbounds nuw %struct.CommonTileParams, ptr %25, i32 0, i32 9
  %27 = load i32, ptr %26, align 4
  %28 = load ptr, ptr %6, align 8
  store i32 %27, ptr %28, align 4
  br label %96

29:                                               ; preds = %3
  store i32 0, ptr %8, align 4
  br label %30

30:                                               ; preds = %59, %29
  %31 = load i32, ptr %8, align 4
  %32 = load ptr, ptr %7, align 8
  %33 = getelementptr inbounds nuw %struct.CommonTileParams, ptr %32, i32 0, i32 0
  %34 = load i32, ptr %33, align 4
  %35 = icmp slt i32 %31, %34
  br i1 %35, label %36, label %62

36:                                               ; preds = %30
  %37 = load ptr, ptr %7, align 8
  %38 = getelementptr inbounds nuw %struct.CommonTileParams, ptr %37, i32 0, i32 15
  %39 = load i32, ptr %8, align 4
  %40 = add nsw i32 %39, 1
  %41 = sext i32 %40 to i64
  %42 = getelementptr inbounds [65 x i32], ptr %38, i64 0, i64 %41
  %43 = load i32, ptr %42, align 4
  %44 = load ptr, ptr %7, align 8
  %45 = getelementptr inbounds nuw %struct.CommonTileParams, ptr %44, i32 0, i32 15
  %46 = load i32, ptr %8, align 4
  %47 = sext i32 %46 to i64
  %48 = getelementptr inbounds [65 x i32], ptr %45, i64 0, i64 %47
  %49 = load i32, ptr %48, align 4
  %50 = sub nsw i32 %43, %49
  store i32 %50, ptr %9, align 4
  %51 = load i32, ptr %9, align 4
  %52 = load ptr, ptr %4, align 8
  %53 = getelementptr inbounds nuw %struct.AV1Common, ptr %52, i32 0, i32 37
  %54 = getelementptr inbounds nuw %struct.SequenceHeader, ptr %53, i32 0, i32 8
  %55 = load i32, ptr %54, align 16
  %56 = mul nsw i32 %51, %55
  store i32 %56, ptr %10, align 4
  %57 = load i32, ptr %10, align 4
  %58 = load ptr, ptr %5, align 8
  store i32 %57, ptr %58, align 4
  br label %59

59:                                               ; preds = %36
  %60 = load i32, ptr %8, align 4
  %61 = add nsw i32 %60, 1
  store i32 %61, ptr %8, align 4
  br label %30, !llvm.loop !9

62:                                               ; preds = %30
  store i32 0, ptr %11, align 4
  br label %63

63:                                               ; preds = %92, %62
  %64 = load i32, ptr %11, align 4
  %65 = load ptr, ptr %7, align 8
  %66 = getelementptr inbounds nuw %struct.CommonTileParams, ptr %65, i32 0, i32 1
  %67 = load i32, ptr %66, align 4
  %68 = icmp slt i32 %64, %67
  br i1 %68, label %69, label %95

69:                                               ; preds = %63
  %70 = load ptr, ptr %7, align 8
  %71 = getelementptr inbounds nuw %struct.CommonTileParams, ptr %70, i32 0, i32 16
  %72 = load i32, ptr %11, align 4
  %73 = add nsw i32 %72, 1
  %74 = sext i32 %73 to i64
  %75 = getelementptr inbounds [65 x i32], ptr %71, i64 0, i64 %74
  %76 = load i32, ptr %75, align 4
  %77 = load ptr, ptr %7, align 8
  %78 = getelementptr inbounds nuw %struct.CommonTileParams, ptr %77, i32 0, i32 16
  %79 = load i32, ptr %11, align 4
  %80 = sext i32 %79 to i64
  %81 = getelementptr inbounds [65 x i32], ptr %78, i64 0, i64 %80
  %82 = load i32, ptr %81, align 4
  %83 = sub nsw i32 %76, %82
  store i32 %83, ptr %12, align 4
  %84 = load i32, ptr %12, align 4
  %85 = load ptr, ptr %4, align 8
  %86 = getelementptr inbounds nuw %struct.AV1Common, ptr %85, i32 0, i32 37
  %87 = getelementptr inbounds nuw %struct.SequenceHeader, ptr %86, i32 0, i32 8
  %88 = load i32, ptr %87, align 16
  %89 = mul nsw i32 %84, %88
  store i32 %89, ptr %13, align 4
  %90 = load i32, ptr %13, align 4
  %91 = load ptr, ptr %6, align 8
  store i32 %90, ptr %91, align 4
  br label %92

92:                                               ; preds = %69
  %93 = load i32, ptr %11, align 4
  %94 = add nsw i32 %93, 1
  store i32 %94, ptr %11, align 4
  br label %63, !llvm.loop !10

95:                                               ; preds = %63
  br label %96

96:                                               ; preds = %95, %20
  ret void
}