; Function Attrs: nofree norecurse nosync nounwind memory(argmem: readwrite) uwtable
define hidden void @av1_get_uniform_tile_size(ptr nocapture noundef readonly %0, ptr nocapture noundef writeonly %1, ptr nocapture noundef writeonly %2) local_unnamed_addr #1 {
  %4 = getelementptr inbounds nuw i8, ptr %0, i64 27136
  %5 = getelementptr inbounds i8, ptr %0, i64 27156
  %6 = load i32, ptr %5, align 4
  %.not = icmp eq i32 %6, 0
  br i1 %.not, label %.preheader28, label %11

.preheader28:                                     ; preds = %3
  %7 = load i32, ptr %4, align 4
  %8 = icmp sgt i32 %7, 0
  br i1 %8, label %.lr.ph, label %.preheader

.lr.ph:                                           ; preds = %.preheader28
  %9 = getelementptr inbounds i8, ptr %0, i64 27196
  %10 = getelementptr inbounds i8, ptr %0, i64 25216
  br label %21

11:                                               ; preds = %3
  %12 = getelementptr inbounds i8, ptr %0, i64 27168
  %13 = load i32, ptr %12, align 4
  store i32 %13, ptr %1, align 4
  %14 = getelementptr inbounds i8, ptr %0, i64 27172
  %15 = load i32, ptr %14, align 4
  store i32 %15, ptr %2, align 4
  br label %.loopexit

.preheader:                                       ; preds = %21, %.preheader28
  %16 = getelementptr inbounds i8, ptr %0, i64 27140
  %17 = load i32, ptr %16, align 4
  %18 = icmp sgt i32 %17, 0
  br i1 %18, label %.lr.ph31, label %.loopexit

.lr.ph31:                                         ; preds = %.preheader
  %19 = getelementptr inbounds i8, ptr %0, i64 27456
  %20 = getelementptr inbounds i8, ptr %0, i64 25216
  br label %32

21:                                               ; preds = %.lr.ph, %21
  %indvars.iv = phi i64 [ 0, %.lr.ph ], [ %indvars.iv.next, %21 ]
  %indvars.iv.next = add nuw nsw i64 %indvars.iv, 1
  %22 = getelementptr inbounds [65 x i32], ptr %9, i64 0, i64 %indvars.iv.next
  %23 = load i32, ptr %22, align 4
  %24 = getelementptr inbounds [65 x i32], ptr %9, i64 0, i64 %indvars.iv
  %25 = load i32, ptr %24, align 4
  %26 = sub nsw i32 %23, %25
  %27 = load i32, ptr %10, align 16
  %28 = mul nsw i32 %26, %27
  store i32 %28, ptr %1, align 4
  %29 = load i32, ptr %4, align 4
  %30 = sext i32 %29 to i64
  %31 = icmp slt i64 %indvars.iv.next, %30
  br i1 %31, label %21, label %.preheader, !llvm.loop !9

32:                                               ; preds = %.lr.ph31, %32
  %indvars.iv33 = phi i64 [ 0, %.lr.ph31 ], [ %indvars.iv.next34, %32 ]
  %indvars.iv.next34 = add nuw nsw i64 %indvars.iv33, 1
  %33 = getelementptr inbounds [65 x i32], ptr %19, i64 0, i64 %indvars.iv.next34
  %34 = load i32, ptr %33, align 4
  %35 = getelementptr inbounds [65 x i32], ptr %19, i64 0, i64 %indvars.iv33
  %36 = load i32, ptr %35, align 4
  %37 = sub nsw i32 %34, %36
  %38 = load i32, ptr %20, align 16
  %39 = mul nsw i32 %37, %38
  store i32 %39, ptr %2, align 4
  %40 = load i32, ptr %16, align 4
  %41 = sext i32 %40 to i64
  %42 = icmp slt i64 %indvars.iv.next34, %41
  br i1 %42, label %32, label %.loopexit, !llvm.loop !10

.loopexit:                                        ; preds = %32, %.preheader, %11
  ret void
}